target datalayout = "e-m:e-p270:32:32-p271:32:32-p272:64:64-i64:64-i128:128-f80:128-n8:16:32:64-S128"
target triple = "x86_64-pc-linux-gnu"

%struct.cli_hashtable = type { ptr, i64, i64, i64 }
%struct.cli_element = type { ptr, i64, i64 }
%struct.cli_map = type { %struct.cli_hashtable, %union.anon.0, i32, i32, i32, i32, i32 }
%union.anon.0 = type { ptr }
%struct.cli_map_value = type { ptr, i32 }

@DELETED_KEY = internal constant [1 x i8] zeroinitializer, align 1

; Function Attrs: nounwind uwtable
define internal i32 @hash32shift(i32 noundef %0) #0 {
  %2 = alloca i32, align 4
  store i32 %0, ptr %2, align 4
  %3 = load i32, ptr %2, align 4
  %4 = xor i32 %3, -1
  %5 = load i32, ptr %2, align 4
  %6 = shl i32 %5, 15
  %7 = add i32 %4, %6
  store i32 %7, ptr %2, align 4
  %8 = load i32, ptr %2, align 4
  %9 = load i32, ptr %2, align 4
  %10 = lshr i32 %9, 12
  %11 = xor i32 %8, %10
  store i32 %11, ptr %2, align 4
  %12 = load i32, ptr %2, align 4
  %13 = load i32, ptr %2, align 4
  %14 = shl i32 %13, 2
  %15 = add i32 %12, %14
  store i32 %15, ptr %2, align 4
  %16 = load i32, ptr %2, align 4
  %17 = load i32, ptr %2, align 4
  %18 = lshr i32 %17, 4
  %19 = xor i32 %16, %18
  store i32 %19, ptr %2, align 4
  %20 = load i32, ptr %2, align 4
  %21 = load i32, ptr %2, align 4
  %22 = shl i32 %21, 3
  %23 = add i32 %20, %22
  %24 = load i32, ptr %2, align 4
  %25 = shl i32 %24, 11
  %26 = add i32 %23, %25
  store i32 %26, ptr %2, align 4
  %27 = load i32, ptr %2, align 4
  %28 = load i32, ptr %2, align 4
  %29 = lshr i32 %28, 16
  %30 = xor i32 %27, %29
  store i32 %30, ptr %2, align 4
  %31 = load i32, ptr %2, align 4
  ret i32 %31
}

; Function Attrs: nounwind uwtable
define internal i64 @hash(ptr noundef %0, i64 noundef %1, i64 noundef %2) #0 {
  %4 = alloca ptr, align 8
  %5 = alloca i64, align 8
  %6 = alloca i64, align 8
  %7 = alloca i64, align 8
  %8 = alloca i64, align 8
  store ptr %0, ptr %4, align 8
  store i64 %1, ptr %5, align 8
  store i64 %2, ptr %6, align 8
  store i64 1, ptr %7, align 8
  store i64 0, ptr %8, align 8
  br label %9

9:                                                ; preds = %25, %3
  %10 = load i64, ptr %8, align 8
  %11 = load i64, ptr %5, align 8
  %12 = icmp ult i64 %10, %11
  br i1 %12, label %13, label %28

13:                                               ; preds = %9
  %14 = load ptr, ptr %4, align 8
  %15 = load i64, ptr %8, align 8
  %16 = getelementptr inbounds i8, ptr %14, i64 %15
  %17 = load i8, ptr %16, align 1
  %18 = zext i8 %17 to i64
  %19 = load i64, ptr %7, align 8
  %20 = add i64 %19, %18
  store i64 %20, ptr %7, align 8
  %21 = load i64, ptr %7, align 8
  %22 = trunc i64 %21 to i32
  %23 = call i32 @hash32shift(i32 noundef %22)
  %24 = zext i32 %23 to i64
  store i64 %24, ptr %7, align 8
  br label %25

25:                                               ; preds = %13
  %26 = load i64, ptr %8, align 8
  %27 = add i64 %26, 1
  store i64 %27, ptr %8, align 8
  br label %9

28:                                               ; preds = %9
  %29 = load i64, ptr %7, align 8
  %30 = load i64, ptr %6, align 8
  %31 = sub i64 %30, 1
  %32 = and i64 %29, %31
  ret i64 %32
}

; Function Attrs: nounwind uwtable
define ptr @cli_hashtab_find(ptr noundef %0, ptr noundef %1, i64 noundef %2) #0 {
  %4 = alloca ptr, align 8
  %5 = alloca ptr, align 8
  %6 = alloca ptr, align 8
  %7 = alloca i64, align 8
  %8 = alloca ptr, align 8
  %9 = alloca i64, align 8
  %10 = alloca i64, align 8
  store ptr %0, ptr %5, align 8
  store ptr %1, ptr %6, align 8
  store i64 %2, ptr %7, align 8
  store i64 1, ptr %9, align 8
  %11 = load ptr, ptr %5, align 8
  %12 = icmp ne ptr %11, null
  br i1 %12, label %14, label %13

13:                                               ; preds = %3
  store ptr null, ptr %4, align 8
  br label %83

14:                                               ; preds = %3
  %15 = load ptr, ptr %6, align 8
  %16 = load i64, ptr %7, align 8
  %17 = load ptr, ptr %5, align 8
  %18 = getelementptr inbounds %struct.cli_hashtable, ptr %17, i32 0, i32 1
  %19 = load i64, ptr %18, align 8
  %20 = call i64 @hash(ptr noundef %15, i64 noundef %16, i64 noundef %19)
  store i64 %20, ptr %10, align 8
  %21 = load ptr, ptr %5, align 8
  %22 = getelementptr inbounds %struct.cli_hashtable, ptr %21, i32 0, i32 0
  %23 = load ptr, ptr %22, align 8
  %24 = load i64, ptr %10, align 8
  %25 = getelementptr inbounds %struct.cli_element, ptr %23, i64 %24
  store ptr %25, ptr %8, align 8
  br label %26

26:                                               ; preds = %76, %14
  %27 = load ptr, ptr %8, align 8
  %28 = getelementptr inbounds %struct.cli_element, ptr %27, i32 0, i32 0
  %29 = load ptr, ptr %28, align 8
  %30 = icmp ne ptr %29, null
  br i1 %30, label %32, label %31

31:                                               ; preds = %26
  store ptr null, ptr %4, align 8
  br label %83

32:                                               ; preds = %26
  %33 = load ptr, ptr %8, align 8
  %34 = getelementptr inbounds %struct.cli_element, ptr %33, i32 0, i32 0
  %35 = load ptr, ptr %34, align 8
  %36 = icmp ne ptr %35, @DELETED_KEY
  br i1 %36, label %37, label %59

37:                                               ; preds = %32
  %38 = load i64, ptr %7, align 8
  %39 = load ptr, ptr %8, align 8
  %40 = getelementptr inbounds %struct.cli_element, ptr %39, i32 0, i32 2
  %41 = load i64, ptr %40, align 8
  %42 = icmp eq i64 %38, %41
  br i1 %42, label %43, label %59

43:                                               ; preds = %37
  %44 = load ptr, ptr %6, align 8
  %45 = load ptr, ptr %8, align 8
  %46 = getelementptr inbounds %struct.cli_element, ptr %45, i32 0, i32 0
  %47 = load ptr, ptr %46, align 8
  %48 = icmp eq ptr %44, %47
  br i1 %48, label %57, label %49

49:                                               ; preds = %43
  %50 = load ptr, ptr %6, align 8
  %51 = load ptr, ptr %8, align 8
  %52 = getelementptr inbounds %struct.cli_element, ptr %51, i32 0, i32 0
  %53 = load ptr, ptr %52, align 8
  %54 = load i64, ptr %7, align 8
  %55 = call i32 @strncmp(ptr noundef %50, ptr noundef %53, i64 noundef %54) #6
  %56 = icmp eq i32 %55, 0
  br i1 %56, label %57, label %59

57:                                               ; preds = %49, %43
  %58 = load ptr, ptr %8, align 8
  store ptr %58, ptr %4, align 8
  br label %83

59:                                               ; preds = %49, %37, %32
  %60 = load i64, ptr %10, align 8
  %61 = load i64, ptr %9, align 8
  %62 = add i64 %61, 1
  store i64 %62, ptr %9, align 8
  %63 = add i64 %60, %61
  %64 = load ptr, ptr %5, align 8
  %65 = getelementptr inbounds %struct.cli_hashtable, ptr %64, i32 0, i32 1
  %66 = load i64, ptr %65, align 8
  %67 = sub i64 %66, 1
  %68 = and i64 %63, %67
  store i64 %68, ptr %10, align 8
  %69 = load ptr, ptr %5, align 8
  %70 = getelementptr inbounds %struct.cli_hashtable, ptr %69, i32 0, i32 0
  %71 = load ptr, ptr %70, align 8
  %72 = load i64, ptr %10, align 8
  %73 = getelementptr inbounds %struct.cli_element, ptr %71, i64 %72
  store ptr %73, ptr %8, align 8
  br label %74

74:                                               ; preds = %59
  br label %75

75:                                               ; preds = %74
  br label %76

76:                                               ; preds = %75
  %77 = load i64, ptr %9, align 8
  %78 = load ptr, ptr %5, align 8
  %79 = getelementptr inbounds %struct.cli_hashtable, ptr %78, i32 0, i32 1
  %80 = load i64, ptr %79, align 8
  %81 = icmp ule i64 %77, %80
  br i1 %81, label %26, label %82

82:                                               ; preds = %76
  store ptr null, ptr %4, align 8
  br label %83

83:                                               ; preds = %82, %57, %31, %13
  %84 = load ptr, ptr %4, align 8
  ret ptr %84
}

; Function Attrs: nounwind uwtable
define i32 @cli_map_addkey(ptr noundef %0, ptr noundef %1, i32 noundef %2) #0 {
  %4 = alloca i32, align 4
  %5 = alloca ptr, align 8
  %6 = alloca ptr, align 8
  %7 = alloca i32, align 4
  %8 = alloca i32, align 4
  %9 = alloca ptr, align 8
  %10 = alloca ptr, align 8
  %11 = alloca ptr, align 8
  store ptr %0, ptr %5, align 8
  store ptr %1, ptr %6, align 8
  store i32 %2, ptr %7, align 4
  %12 = load ptr, ptr %5, align 8
  %13 = getelementptr inbounds %struct.cli_map, ptr %12, i32 0, i32 3
  %14 = load i32, ptr %13, align 4
  %15 = load i32, ptr %7, align 4
  %16 = icmp ne i32 %14, %15
  br i1 %16, label %17, label %18

17:                                               ; preds = %3
  store i32 3, ptr %4, align 4
  br label %119

18:                                               ; preds = %3
  %19 = load ptr, ptr %5, align 8
  %20 = getelementptr inbounds %struct.cli_map, ptr %19, i32 0, i32 0
  %21 = load ptr, ptr %6, align 8
  %22 = load i32, ptr %7, align 4
  %23 = sext i32 %22 to i64
  %24 = call ptr @cli_hashtab_find(ptr noundef %20, ptr noundef %21, i64 noundef %23)
  store ptr %24, ptr %9, align 8
  %25 = load ptr, ptr %9, align 8
  %26 = icmp ne ptr %25, null
  br i1 %26, label %27, label %34

27:                                               ; preds = %18
  %28 = load ptr, ptr %9, align 8
  %29 = getelementptr inbounds %struct.cli_element, ptr %28, i32 0, i32 1
  %30 = load i64, ptr %29, align 8
  %31 = trunc i64 %30 to i32
  %32 = load ptr, ptr %5, align 8
  %33 = getelementptr inbounds %struct.cli_map, ptr %32, i32 0, i32 5
  store i32 %31, ptr %33, align 4
  store i32 9, ptr %4, align 4
  br label %119

34:                                               ; preds = %18
  %35 = load ptr, ptr %5, align 8
  %36 = getelementptr inbounds %struct.cli_map, ptr %35, i32 0, i32 2
  %37 = load i32, ptr %36, align 8
  %38 = add i32 %37, 1
  store i32 %38, ptr %8, align 4
  %39 = load ptr, ptr %5, align 8
  %40 = getelementptr inbounds %struct.cli_map, ptr %39, i32 0, i32 4
  %41 = load i32, ptr %40, align 8
  %42 = icmp ne i32 %41, 0
  br i1 %42, label %43, label %77

43:                                               ; preds = %34
  %44 = load ptr, ptr %5, align 8
  %45 = getelementptr inbounds %struct.cli_map, ptr %44, i32 0, i32 1
  %46 = load ptr, ptr %45, align 8
  %47 = load i32, ptr %8, align 4
  %48 = zext i32 %47 to i64
  %49 = load ptr, ptr %5, align 8
  %50 = getelementptr inbounds %struct.cli_map, ptr %49, i32 0, i32 4
  %51 = load i32, ptr %50, align 8
  %52 = sext i32 %51 to i64
  %53 = mul i64 %48, %52
  %54 = call ptr @cli_max_realloc(ptr noundef %46, i64 noundef %53)
  store ptr %54, ptr %10, align 8
  %55 = load ptr, ptr %10, align 8
  %56 = icmp ne ptr %55, null
  br i1 %56, label %58, label %57

57:                                               ; preds = %43
  store i32 20, ptr %4, align 4
  br label %119

58:                                               ; preds = %43
  %59 = load ptr, ptr %10, align 8
  %60 = load ptr, ptr %5, align 8
  %61 = getelementptr inbounds %struct.cli_map, ptr %60, i32 0, i32 1
  store ptr %59, ptr %61, align 8
  %62 = load ptr, ptr %5, align 8
  %63 = getelementptr inbounds %struct.cli_map, ptr %62, i32 0, i32 1
  %64 = load ptr, ptr %63, align 8
  %65 = load i32, ptr %8, align 4
  %66 = sub i32 %65, 1
  %67 = load ptr, ptr %5, align 8
  %68 = getelementptr inbounds %struct.cli_map, ptr %67, i32 0, i32 4
  %69 = load i32, ptr %68, align 8
  %70 = mul i32 %66, %69
  %71 = zext i32 %70 to i64
  %72 = getelementptr inbounds i8, ptr %64, i64 %71
  %73 = load ptr, ptr %5, align 8
  %74 = getelementptr inbounds %struct.cli_map, ptr %73, i32 0, i32 4
  %75 = load i32, ptr %74, align 8
  %76 = sext i32 %75 to i64
  call void @llvm.memset.p0.i64(ptr align 1 %72, i8 0, i64 %76, i1 false)
  br label %99

77:                                               ; preds = %34
  %78 = load ptr, ptr %5, align 8
  %79 = getelementptr inbounds %struct.cli_map, ptr %78, i32 0, i32 1
  %80 = load ptr, ptr %79, align 8
  %81 = load i32, ptr %8, align 4
  %82 = zext i32 %81 to i64
  %83 = mul i64 %82, 16
  %84 = call ptr @cli_max_realloc(ptr noundef %80, i64 noundef %83)
  store ptr %84, ptr %11, align 8
  %85 = load ptr, ptr %11, align 8
  %86 = icmp ne ptr %85, null
  br i1 %86, label %88, label %87

87:                                               ; preds = %77
  store i32 20, ptr %4, align 4
  br label %119

88:                                               ; preds = %77
  %89 = load ptr, ptr %11, align 8
  %90 = load ptr, ptr %5, align 8
  %91 = getelementptr inbounds %struct.cli_map, ptr %90, i32 0, i32 1
  store ptr %89, ptr %91, align 8
  %92 = load ptr, ptr %5, align 8
  %93 = getelementptr inbounds %struct.cli_map, ptr %92, i32 0, i32 1
  %94 = load ptr, ptr %93, align 8
  %95 = load i32, ptr %8, align 4
  %96 = sub i32 %95, 1
  %97 = zext i32 %96 to i64
  %98 = getelementptr inbounds %struct.cli_map_value, ptr %94, i64 %97
  call void @llvm.memset.p0.i64(ptr align 8 %98, i8 0, i64 16, i1 false)
  br label %99

99:                                               ; preds = %88, %58
  %100 = load i32, ptr %8, align 4
  %101 = load ptr, ptr %5, align 8
  %102 = getelementptr inbounds %struct.cli_map, ptr %101, i32 0, i32 2
  store i32 %100, ptr %102, align 8
  %103 = load ptr, ptr %5, align 8
  %104 = getelementptr inbounds %struct.cli_map, ptr %103, i32 0, i32 0
  %105 = load ptr, ptr %6, align 8
  %106 = load i32, ptr %7, align 4
  %107 = sext i32 %106 to i64
  %108 = load i32, ptr %8, align 4
  %109 = sub i32 %108, 1
  %110 = zext i32 %109 to i64
  %111 = call ptr @cli_hashtab_insert(ptr noundef %104, ptr noundef %105, i64 noundef %107, i64 noundef %110)
  %112 = icmp ne ptr %111, null
  br i1 %112, label %114, label %113

113:                                              ; preds = %99
  store i32 20, ptr %4, align 4
  br label %119

114:                                              ; preds = %99
  %115 = load i32, ptr %8, align 4
  %116 = sub i32 %115, 1
  %117 = load ptr, ptr %5, align 8
  %118 = getelementptr inbounds %struct.cli_map, ptr %117, i32 0, i32 5
  store i32 %116, ptr %118, align 4
  store i32 0, ptr %4, align 4
  br label %119

119:                                              ; preds = %114, %113, %87, %57, %27, %17
  %120 = load i32, ptr %4, align 4
  ret i32 %120
}