; Function Attrs: nounwind uwtable
define noundef i32 @cli_map_addkey(ptr noundef %0, ptr noundef readonly %1, i32 noundef %2) local_unnamed_addr #0 {
  %4 = getelementptr inbounds i8, ptr %0, i64 44
  %5 = load i32, ptr %4, align 4
  %.not = icmp eq i32 %5, %2
  br i1 %.not, label %6, label %75

6:                                                ; preds = %3
  %7 = sext i32 %2 to i64
  %8 = getelementptr inbounds i8, ptr %0, i64 8
  %9 = load i64, ptr %8, align 8
  %.not.i.i = icmp eq i32 %2, 0
  br i1 %.not.i.i, label %hash.exit.i, label %.lr.ph.i.i

.lr.ph.i.i:                                       ; preds = %6, %.lr.ph.i.i
  %.010.i.i = phi i64 [ %25, %.lr.ph.i.i ], [ 0, %6 ]
  %.089.i.i = phi i32 [ %24, %.lr.ph.i.i ], [ 1, %6 ]
  %10 = getelementptr inbounds i8, ptr %1, i64 %.010.i.i
  %11 = load i8, ptr %10, align 1
  %12 = zext i8 %11 to i32
  %13 = add i32 %.089.i.i, %12
  %14 = xor i32 %13, -1
  %15 = shl i32 %13, 15
  %16 = add i32 %15, %14
  %17 = lshr i32 %16, 12
  %18 = xor i32 %17, %16
  %19 = mul i32 %18, 5
  %20 = lshr i32 %19, 4
  %21 = xor i32 %20, %19
  %22 = mul i32 %21, 2057
  %23 = lshr i32 %22, 16
  %24 = xor i32 %23, %22
  %25 = add nuw i64 %.010.i.i, 1
  %exitcond.not.i.i = icmp eq i64 %25, %7
  br i1 %exitcond.not.i.i, label %._crit_edge.loopexit.i.i, label %.lr.ph.i.i

._crit_edge.loopexit.i.i:                         ; preds = %.lr.ph.i.i
  %26 = zext i32 %24 to i64
  br label %hash.exit.i

hash.exit.i:                                      ; preds = %._crit_edge.loopexit.i.i, %6
  %.08.lcssa.i.i = phi i64 [ 1, %6 ], [ %26, %._crit_edge.loopexit.i.i ]
  %27 = add i64 %9, -1
  %28 = load ptr, ptr %0, align 8
  br label %29

29:                                               ; preds = %41, %hash.exit.i
  %.023.i = phi i64 [ 1, %hash.exit.i ], [ %42, %41 ]
  %.08.lcssa.i.pn.i = phi i64 [ %.08.lcssa.i.i, %hash.exit.i ], [ %43, %41 ]
  %.0.i = and i64 %.08.lcssa.i.pn.i, %27
  %.024.i = getelementptr inbounds %struct.cli_element, ptr %28, i64 %.0.i
  %30 = load ptr, ptr %.024.i, align 8
  %.not31.i = icmp eq ptr %30, null
  br i1 %.not31.i, label %47, label %31

31:                                               ; preds = %29
  %.not32.i = icmp eq ptr %30, @DELETED_KEY
  br i1 %.not32.i, label %41, label %32

32:                                               ; preds = %31
  %33 = getelementptr inbounds i8, ptr %.024.i, i64 16
  %34 = load i64, ptr %33, align 8
  %35 = icmp eq i64 %34, %7
  br i1 %35, label %36, label %41

36:                                               ; preds = %32
  %37 = icmp eq ptr %30, %1
  br i1 %37, label %cli_hashtab_find.exit, label %38

38:                                               ; preds = %36
  %39 = tail call i32 @strncmp(ptr noundef %1, ptr noundef nonnull %30, i64 noundef %7) #19
  %40 = icmp eq i32 %39, 0
  br i1 %40, label %cli_hashtab_find.exit, label %41

41:                                               ; preds = %38, %32, %31
  %42 = add i64 %.023.i, 1
  %43 = add i64 %.0.i, %.023.i
  %.not33.i = icmp ugt i64 %42, %9
  br i1 %.not33.i, label %47, label %29

cli_hashtab_find.exit:                            ; preds = %38, %36
  %44 = getelementptr inbounds i8, ptr %.024.i, i64 8
  %45 = load i64, ptr %44, align 8
  %46 = trunc i64 %45 to i32
  br label %.sink.split

47:                                               ; preds = %41, %29
  %48 = getelementptr inbounds i8, ptr %0, i64 40
  %49 = load i32, ptr %48, align 8
  %50 = add i32 %49, 1
  %51 = getelementptr inbounds i8, ptr %0, i64 48
  %52 = load i32, ptr %51, align 8
  %.not41 = icmp eq i32 %52, 0
  %53 = getelementptr inbounds i8, ptr %0, i64 32
  %54 = load ptr, ptr %53, align 8
  %55 = zext i32 %50 to i64
  br i1 %.not41, label %66, label %56

56:                                               ; preds = %47
  %57 = sext i32 %52 to i64
  %58 = mul nsw i64 %55, %57
  %59 = tail call ptr @cli_max_realloc(ptr noundef %54, i64 noundef %58) #18
  %.not43 = icmp eq ptr %59, null
  br i1 %.not43, label %75, label %60

60:                                               ; preds = %56
  store ptr %59, ptr %53, align 8
  %61 = load i32, ptr %51, align 8
  %62 = mul i32 %61, %49
  %63 = zext i32 %62 to i64
  %64 = getelementptr inbounds i8, ptr %59, i64 %63
  %65 = sext i32 %61 to i64
  tail call void @llvm.memset.p0.i64(ptr nonnull align 1 %64, i8 0, i64 %65, i1 false)
  %.pre = zext i32 %49 to i64
  br label %72

66:                                               ; preds = %47
  %67 = shl nuw nsw i64 %55, 4
  %68 = tail call ptr @cli_max_realloc(ptr noundef %54, i64 noundef %67) #18
  %.not42 = icmp eq ptr %68, null
  br i1 %.not42, label %75, label %69

69:                                               ; preds = %66
  store ptr %68, ptr %53, align 8
  %70 = zext i32 %49 to i64
  %71 = getelementptr inbounds %struct.cli_map_value, ptr %68, i64 %70
  tail call void @llvm.memset.p0.i64(ptr noundef nonnull align 8 dereferenceable(16) %71, i8 0, i64 16, i1 false)
  br label %72

72:                                               ; preds = %69, %60
  %.pre-phi = phi i64 [ %70, %69 ], [ %.pre, %60 ]
  store i32 %50, ptr %48, align 8
  %73 = tail call ptr @cli_hashtab_insert(ptr noundef nonnull %0, ptr noundef %1, i64 noundef %7, i64 noundef %.pre-phi)
  %.not44 = icmp eq ptr %73, null
  br i1 %.not44, label %75, label %.sink.split

.sink.split:                                      ; preds = %72, %cli_hashtab_find.exit
  %.sink = phi i32 [ %46, %cli_hashtab_find.exit ], [ %49, %72 ]
  %.0.ph = phi i32 [ 9, %cli_hashtab_find.exit ], [ 0, %72 ]
  %74 = getelementptr inbounds i8, ptr %0, i64 52
  store i32 %.sink, ptr %74, align 4
  br label %75

75:                                               ; preds = %.sink.split, %72, %66, %56, %3
  %.0 = phi i32 [ 3, %3 ], [ 20, %56 ], [ 20, %66 ], [ 20, %72 ], [ %.0.ph, %.sink.split ]
  ret i32 %.0
}